(lp0
Vremarkable
p1
aVndtv
p2
aVcial
p3
aVmarde
p4
aVouch
p5
aVyellow
p6
aVsharepoint2016
p7
aVunrest
p8
aVmild
p9
aVlauki
p10
aVsleep
p11
aVunmatched
p12
aVcontroversial
p13
aValt
p14
aVoldest
p15
aVreligious
p16
aVsaree
p17
aVnous
p18
aVporno
p19
aVyummy
p20
aVvile
p21
aVujjo
p22
aVconcerned
p23
aVsuave
p24
aVflyo9k
p25
aVyoung
p26
aVnose
p27
aVmoiti
p28
aVnyour
p29
aVaur
p30
aVth
p31
aVsmile
p32
aVexpeditious
p33
aVte
p34
aVfriendly
p35
aVsent
p36
aVta
p37
aVbrown
p38
aVsupported
p39
aVworse
p40
aVcompassion
p41
aVfeminist
p42
aVhilarious
p43
aVcrual
p44
aVsloppy
p45
aVcandid
p46
aVworst
p47
aVromantic
p48
aVcutepic
p49
aVtrouble
p50
aVfad
p51
aVcool
p52
aVentire
p53
aVdin
p54
aVdoggy
p55
aVmagic
p56
aVbravest
p57
aVstiff
p58
aVhymnkardashian
p59
aVdie
p60
aVdesihot
p61
aVapplicable
p62
aVsingularly
p63
aVnudepic
p64
aVvibes
p65
aVsana
p66
aVquick
p67
aVthegoaneveryday
p68
aVanal
p69
aVusainbolt
p70
aVrecordhttps
p71
aVproof
p72
aVasian
p73
aVasktheinternet
p74
aVspiritual
p75
aVbabypic
p76
aVgrateful
p77
aVporn
p78
aVsigh
p79
aVobsolete
p80
aVpast
p81
aVlikely
p82
aVfabulous
p83
aVcumtribute
p84
aVcummy
p85
aVutter
p86
aVfurther
p87
aVcoolhttps
p88
aVcasual
p89
aVbold
p90
aVwaale
p91
aVdictionary
p92
aVgenious
p93
aVdeclassified
p94
aVsum
p95
aVboogie
p96
aVcynical
p97
aVfeelingsad
p98
aVthru
p99
aVuniform
p100
aVcurrent
p101
aVconnecticutopen
p102
aVindian
p103
aVmaa
p104
aVnew
p105
aVnet
p106
aVummmm
p107
aVpublic
p108
aVleprosy
p109
aVhairy
p110
aVtattoos
p111
aVfull
p112
aVchristian
p113
aVshahidkapoor
p114
aVhugefacial
p115
aVunprofessional
p116
aVbrapic
p117
aVcommercial
p118
aVfrench
p119
aViconic
p120
aVwhimpy
p121
aVoverseas
p122
aVvinden
p123
aVslow
p124
aVyxtw052gsks
p125
aVdege
p126
aVactive
p127
aVsexy
p128
aVwifeswapping
p129
aVstrong
p130
aVextreme
p131
aVspecsavershttps
p132
aVgreat
p133
aVinsan
p134
aVridiculous
p135
aVbu
p136
aVbrilliant
p137
aVvegetarian
p138
aVlarger
p139
aVuurtje
p140
aVbrutal
p141
aVprivate
p142
aVhealthier
p143
aVsocial
p144
aVexistent
p145
aVu015bmy
p146
aVsuitable
p147
aVu0105
p148
aVweirder
p149
aVhue
p150
aVgolden
p151
aVfantastic
p152
aVdick
p153
aVuseful
p154
aVstray
p155
aVextra
p156
aVwin
p157
aVapp
p158
aVshanexxxdiesel
p159
aVapprehensive
p160
aVgico
p161
aVcuckoldpic
p162
aVbro
p163
aVemon
p164
aVaddressed
p165
aVbananarepublic
p166
aVorg
p167
aVnarendramodi
p168
aVartworkshttp
p169
aVfrustratedindian
p170
aVasi
p171
aVbaby
p172
aVgranular
p173
aVliye
p174
aVvivid
p175
aVusa
p176
aVfailed
p177
aVpositive
p178
aVangry
p179
aVnegative
p180
aVnext
p181
aVnowhttp
p182
aVfew
p183
aVlive
p184
aVmusic
p185
aVcalm
p186
aVhttps
p187
aVarmstrongcbc
p188
aVuxcn9oon3lm
p189
aVaustralian
p190
aVdefinite
p191
aVbigg
p192
aVminor
p193
aVmore
p194
aVneverending
p195
aVsohailkhanofficial
p196
aVunprompted
p197
aVstylehttp
p198
aVfellow
p199
aVrich
p200
aVholy
p201
aVsuccessful
p202
aVspoilt
p203
aVbenchmark
p204
aVunderwear
p205
aVnypocrtical
p206
aVlikespic
p207
aVlong
p208
aVwarm
p209
aVignorant
p210
aVexcellent
p211
aVworthwhile
p212
aVpreoccupied
p213
aVhold
p214
aVstarter
p215
aVbhaag
p216
aVtheharleyjade
p217
aVf
p218
aVboy
p219
aVbellathorne
p220
aVposthumous
p221
aVpour
p222
aVworth
p223
aVbrandbuildingseries2016
p224
aVhornypic
p225
aVeasier
p226
aVvega
p227
aVobvious
p228
aVthin
p229
aVden
p230
aVfreedom
p231
aVteamcumslut
p232
aVshook
p233
aVbeautiful
p234
aVf1
p235
aVetti
p236
aVlechita
p237
aVsirf
p238
aVstream
p239
aVgive
p240
aVvulnerable
p241
aVawesome
p242
aVindia
p243
aVfuck
p244
aVhigh
p245
aVironic
p246
aVhrt
p247
aVunveiled
p248
aVsense
p249
aVmoronic
p250
aVcharitran
p251
aVskirt
p252
aVumid
p253
aVnative
p254
aVpink
p255
aVsir
p256
aVmanish
p257
aVproductive
p258
aVcomfortable
p259
aVbankrupt
p260
aVaahh
p261
aVneedy
p262
aVspreadsheet
p263
aVtill
p264
aVhot
p265
aVhou
p266
aVanimal
p267
aVanswer
p268
aVchot
p269
aVordinary
p270
aValbela
p271
aVintelligent
p272
aVakeli
p273
aVnaa
p274
aVprofile
p275
aVsaath
p276
aVunbelievable
p277
aVokay
p278
aVufff
p279
aVrude
p280
aVhuge
p281
aVoverall
p282
aVearlier
p283
aVchut
p284
aVlengthy
p285
aVpathetic
p286
aVpermanent
p287
aVwrong
p288
aVbirthday
p289
aVnaukari
p290
aVfat
p291
aVcucky
p292
aVsuch
p293
aVendgame
p294
aVda
p295
aVfilthy
p296
aVmal
p297
aVlar
p298
aVteamgay
p299
aVcumleon129
p300
aVshort
p301
aVnatural
p302
aVinbred
p303
aVshady
p304
aVupcoming
p305
aVcumswallow
p306
aVovernight
p307
aVanytime
p308
aVst
p309
aVsk
p310
aVnamumkin
p311
aVgreen
p312
aVskull
p313
aVfurious
p314
aVethernet
p315
aVtypical
p316
aVexclusive
p317
aVdirtiest
p318
aVlovely
p319
aVwifepussy
p320
aVdeveloped
p321
aVastronomical
p322
aVnaish
p323
aVinvariati
p324
aVsuprised
p325
aVsperm
p326
aVaaya
p327
aVpascal
p328
aVfinest
p329
aVnsfw
p330
aVurdu
p331
aVcold
p332
aVhorny
p333
aVarrogant
p334
aVdont
p335
aVappeasement
p336
aVshorter
p337
aVld
p338
aVle
p339
aVboxervijender
p340
aVfrisky
p341
aVtheologian
p342
aVinteresting
p343
aVnrepublican
p344
aVchahiye
p345
aVdenver
p346
aVfruitful
p347
aVbetter
p348
aVcomplex
p349
aVchoose
p350
aVstalled
p351
aVpussy
p352
aVcriminal
p353
aVaffiliatemarketingpro
p354
aVly
p355
aVwouldn
p356
aVnon
p357
aVgood
p358
aVnemishnarayan
p359
aVnhi
p360
aVsafe
p361
aVmaior
p362
aVuhh
p363
aVindigenous
p364
aVdat
p365
aVshameful
p366
aVlegendary
p367
aVhalf
p368
aVyr
p369
aVattuale
p370
aVbigger
p371
aVcuck
p372
aVitpic
p373
aVpregnant
p374
aVmathematician
p375
aVclutch
p376
aVjawaab
p377
aVdik
p378
aVmuaahhpic
p379
aVshaved
p380
aVsettledhttps
p381
aVshy
p382
aVpadhlikh
p383
aVslutpussy
p384
aVmean
p385
aVheavy
p386
aVburial
p387
aVr
p388
aVfacialcumshotpic
p389
aVfuckedup
p390
aVeh
p391
aVtimeless
p392
aVhard
p393
aVoppressed
p394
aVtruehttps
p395
aVmarital
p396
aVcrackedpop
p397
aVlogo
p398
aVgirl
p399
aVsexual
p400
aVspecial
p401
aVcreatedhttps
p402
aVcanada
p403
aVlarge
p404
aVgoo
p405
aVgon
p406
aVvadhaiyan
p407
aVnude
p408
aVunbuttoned
p409
aVfrontier
p410
aVmiss
p411
aVhisleriniz
p412
aVprojected
p413
aVret
p414
aVmere
p415
aVrational
p416
aVcomprehensive
p417
aVtiresome
p418
aVred
p419
aVsubstancehttp
p420
aVcutest
p421
aVpersonal
p422
aVguess
p423
aVfree
p424
aVstandard
p425
aVfactual
p426
aVsmall
p427
aVajay
p428
aVque
p429
aVask
p430
aVchecked
p431
aVlaughable
p432
aVe0
p433
aVscary
p434
aVtimesnow
p435
aVdoublefacial
p436
aVdakikal
p437
aVdaabaa
p438
aVlaunch
p439
aVsruthisrao
p440
aVkhojne
p441
aVterrible
p442
aVbritish
p443
aVhonest
p444
aVamerican
p445
aVish
p446
aVmassive
p447
aVw
p448
aVisb
p449
aVsaniahsnn
p450
aVglobal
p451
aVloud
p452
aVneglect
p453
aVfirst
p454
aVorigin
p455
aVcheese
p456
aVmajor
p457
aVindustrial
p458
aVunhealthy
p459
aVclinical
p460
aVcallous
p461
aVbhai
p462
aVmadurai
p463
aVstrategic
p464
aVxx
p465
aVlol
p466
aVrobust
p467
aVimpossible
p468
aVcomic
p469
aViyide
p470
aVopen
p471
aVsuck
p472
aVlittle
p473
aVancient
p474
aVnadeemahmaddoit
p475
aVsilent
p476
aVservice
p477
aVstart
p478
aVleading
p479
aVtop
p480
aVtov
p481
aVleast
p482
aVlesbian
p483
aVmerrier
p484
aVtoh
p485
aVwonderful
p486
aVtragic
p487
aVteen
p488
aVunke
p489
aVballistic
p490
aVwhite
p491
aVscheme
p492
aVfinal
p493
aVpainful
p494
aVurban
p495
aVoffensive
p496
aVu0119g
p497
aVdeepikafaithful
p498
aVcourier
p499
aVbabarazam258pic
p500
aVhum
p501
aVuniverse
p502
aVscrausscraus
p503
aVjapanese
p504
aVnailpolosh
p505
aVnahi
p506
aVelusive
p507
aVleftpic
p508
aVunrealistic
p509
aVhaven
p510
aVarpitgoyal
p511
aVhotwifepic
p512
aVloved
p513
aVbuddy
p514
aVlegs
p515
aVimpractical
p516
aVobjectionable
p517
aVdouble
p518
aVcoward
p519
aVolder
p520
aVtree
p521
aVgrey
p522
aVunprecedented
p523
aVfemale
p524
aVopenpic
p525
aVcontrary
p526
aVaap
p527
aVlight
p528
aVnagative
p529
aVgigantic
p530
aVallergic
p531
aVusdardhttps
p532
aVusepic
p533
aVbhi
p534
aVclit
p535
aVuniforms
p536
aVshowbiz
p537
aVoutstanding
p538
aVbisexual
p539
aVunchanged
p540
aVmodern
p541
aVbhe
p542
aVmine
p543
aVmagical
p544
aVant
p545
aVatomic
p546
aVsubstantial
p547
aVsocio
p548
aVndon
p549
aVamazonin
p550
aVmehttps
p551
aVsensual
p552
aVq
p553
aVresponsible
p554
aVable
p555
aVsnow
p556
aVbengal
p557
aVpotential
p558
aVbuild
p559
aVwhich
p560
aVonline
p561
aVobjective
p562
aVjail
p563
aVkorean
p564
aVbanjo
p565
aVjudas
p566
aVgreatest
p567
aVsure
p568
aVelectric
p569
aVveronique
p570
aVmohanhttps
p571
aVfred
p572
aVdeeni
p573
aVmost
p574
aVregular
p575
aVawk
p576
aVfirengy
p577
aVsignificant
p578
aViswastikasharma
p579
aVncall
p580
aVmedal
p581
aVhotpic
p582
aVsalary
p583
aVpeaceful
p584
aVsinger
p585
aVcrackdown
p586
aVdon
p587
aVpetite
p588
aVbaingan
p589
aVmobile
p590
aVmedical
p591
aVproud
p592
aVstronger
p593
aVhungry
p594
aVtraditional
p595
aVcharitable
p596
aVairtelindia
p597
aVtoots
p598
aVartistic
p599
aVclean
p600
aVaxe
p601
aVsh1thead
p602
aVprime
p603
aVsenior
p604
aVpersonalised
p605
aVticketalternative
p606
aVannoyed
p607
aVho
p608
aVprecise
p609
aVtke
p610
aVgold
p611
aVcute
p612
aVgerman
p613
aVlewis
p614
aVrandom
p615
aVcheap
p616
aVprid
p617
aVfifty
p618
aVestoy
p619
aVzqph3kdyfcg
p620
aVniet
p621
aVparked
p622
aVspanish
p623
aVthreshold
p624
aVsubtle
p625
aVdrinkslaylovehttps
p626
aVtesad
p627
aVpe
p628
aVbusy
p629
aVtumne
p630
aVcum
p631
aVjustice
p632
aVcrawl
p633
aVorlandopic
p634
aVhopeful
p635
aV19th
p636
aVhrs
p637
aVjao
p638
aVonly
p639
aVstuble
p640
aVblack
p641
aVcentral
p642
aVpretty
p643
aVvous
p644
aVabt
p645
aVlocal
p646
aVwarmest
p647
aVawareness
p648
aVremiyorlar
p649
aVdo
p650
aVdominant
p651
aVcubic
p652
aVsecular
p653
aVstop
p654
aVlucky
p655
aVpreferred
p656
aVcheaper
p657
aVfamous
p658
aVfastest
p659
aVinternational
p660
aViyi
p661
aVhij
p662
aVendless
p663
aVhazaron
p664
aVlaptop
p665
aVchronological
p666
aVbestest
p667
aVsticky
p668
aVbcci
p669
aVmarried
p670
aVrapper
p671
aVidiotic
p672
aVhouseful
p673
aVnaked
p674
aVfanboy
p675
aVbad
p676
aVstupid
p677
aVboring
p678
aVmadhukishwar
p679
aVinside
p680
aVcrm
p681
aVuknowurhugewhen
p682
aVfair
p683
aVcollateral
p684
aVdiplomatic
p685
aVnational
p686
aVvine
p687
aVsnpy
p688
aVepaper
p689
aVseekingalpha
p690
aVdickhead
p691
aVdumb
p692
aVudaychopra
p693
aVmoneypic
p694
aVmorepic
p695
aVweaman
p696
aVpurest
p697
aVbest
p698
aVinternationalist
p699
aVnatsha
p700
aVlearnt
p701
aVexpert
p702
aVnuclear
p703
aVsuperwoman
p704
aVtetero
p705
aVplease
p706
aVurm8br
p707
aVthishttps
p708
aVdense
p709
aVoutside
p710
aVunable
p711
aVvarious
p712
aVhappiness
p713
aVclosed
p714
aVk17
p715
aVconsecutive
p716
aVdoggystyle
p717
aVhomieeeeehttps
p718
aViamamirofficial
p719
aVcreative
p720
aVvisiblepic
p721
aVavailable
p722
aVperfect
p723
aVlazy
p724
aVexplosive
p725
aVvertical
p726
aVweak
p727
aVsunday
p728
aVs92
p729
aVchod
p730
aVsupraminionm
p731
aVkey
p732
aVupfront
p733
aVteamuncut
p734
aVluvsalimkhan
p735
aVteambigdick
p736
aVlast
p737
aVinfluential
p738
aVmany
p739
aVill
p740
aVannual
p741
aVquiet
p742
aVatankwadi
p743
aVamazing
p744
aVetc
p745
aVs
p746
aVune
p747
aVwishful
p748
aVuncaught
p749
aVswallow
p750
aVwhole
p751
aVhugecumshot
p752
aVnearby
p753
aVofficiellement
p754
aVwale
p755
aVrelevant
p756
aVtough
p757
aVonhttp
p758
aVns3xxy
p759
aVfirewall
p760
aVsweet
p761
aVbhawnae
p762
aVnewborn
p763
aVfukin
p764
aVanti
p765
aVlinux
p766
aVrave
p767
aVconstant
p768
aVgod
p769
aVmoest
p770
aVexpensive
p771
aVcomical
p772
aVjehadis
p773
aVunusual
p774
aVyofrankay
p775
aVadita
p776
aVsecond
p777
aVcapable
p778
aVtremendous
p779
aVwest
p780
aVclassic
p781
aVpolitical
p782
aVfrm
p783
aVgithub
p784
aVadvert
p785
aVimmense
p786
aVsecret
p787
aVmuch
p788
aVdamn
p789
aVcertain
p790
aVamateur
p791
aVpk
p792
aVhottest
p793
aVkarne
p794
aVempty
p795
aVpm
p796
aVwebsite
p797
aVgeneral
p798
aVinnocent
p799
aVgay
p800
aVnred
p801
aVipallavigoyal
p802
aVexposed
p803
aVelse
p804
aVtiger
p805
aVhi
p806
aVshitty
p807
aVdeep
p808
aVinsanlar
p809
aVchild
p810
aVcareful
p811
aVformer
p812
aVpresent
p813
aVnick
p814
aVtonight
p815
aVintriguing
p816
aVmain
p817
aVutmost
p818
aVerotic
p819
aVkuch
p820
aVxa0
p821
aVreliable
p822
aVfinepic
p823
aVmln
p824
aVtengo
p825
aVmarginalised
p826
aVn
p827
aVubergo
p828
aVlizard
p829
aVain
p830
aVneat
p831
aVfuc
p832
aVunreported
p833
aVpromising
p834
aVfun
p835
aVcomedian
p836
aVloot
p837
aVunuttum
p838
aVk
p839
aVcovelong
p840
aVive
p841
aVfonctionne
p842
aVcont
p843
aVsoonhttps
p844
aVuday
p845
aValive
p846
aVequal
p847
aVbias
p848
aVskype
p849
aVready
p850
aVrid
p851
aVeveryday
p852
aVtrusted
p853
aVdifferent
p854
aVgrown
p855
aVfunny
p856
aVcommunal
p857
aVpas
p858
aVuna
p859
aVsame
p860
aVuniversidade
p861
aVpubes
p862
aVunity
p863
aVstrange
p864
aVhamary
p865
aVnishant
p866
aVgrand
p867
aVesteemed
p868
aValiaa08
p869
aVseveral
p870
aVbunny
p871
aVtodos
p872
aVeuropean
p873
aVinjured
p874
aVnoble
p875
aVhttp
p876
aVni
p877
aVeccentric
p878
aVretarded
p879
aVevil
p880
aVkik
p881
aVbeachespic
p882
aVindieep9
p883
aVdelicate
p884
aVsemitic
p885
aVfucked
p886
aVnl
p887
aVinterested
p888
aVthenewsminute
p889
aVbreakthecrown
p890
aVrecent
p891
aVtmrw
p892
aVlower
p893
aVthong
p894
aVthy
p895
aVsurrogate
p896
aVi
p897
aVcom
p898
aVpodemos
p899
aVaish
p900
aVlady
p901
aVfabriclondon
p902
aVfreshlyfucked
p903
aVungliiiiihttps
p904
aVimmeasurable
p905
aVinspirational
p906
aVy
p907
aVoneplus
p908
aVbaat
p909
aVyours
p910
aVlatest
p911
aVslutty
p912
aVtransexual
p913
aVegoistic
p914
aVcumgif
p915
aVless
p916
aVsikii4pic
p917
aVexotic
p918
aVaccurate
p919
aVdomestic
p920
aVcompetitive
p921
aVinadequate
p922
aVimbecile
p923
aVoliverfairfield
p924
aVunclear
p925
aVcocky
p926
aVest
p927
aVhuman
p928
aVtouch
p929
aVsambitswaraj
p930
aVuberpool
p931
aVwala
p932
aVlakh
p933
aVannouncement
p934
aVeli
p935
aVntmbpjmonu0
p936
aVtight
p937
aVreap
p938
aValternate
p939
aVdimwitted
p940
aVcleanpic
p941
aVpassive
p942
aVsimple
p943
aVanaphylactic
p944
aVeasy
p945
aVwet
p946
aVextensive
p947
aVindiantweeter
p948
aVexcited
p949
aVsmart
p950
aVreal
p951
aVfollowback
p952
aVtimesofindia
p953
aVspectacular
p954
aVread
p955
aVbig
p956
aVcouple
p957
aVunlimited
p958
aVpossible
p959
aVdark
p960
aVmax33verstappen
p961
aVblowjob
p962
aVhistoric
p963
aVdailybush
p964
aVsureshpprabhu
p965
aVfacial
p966
aVguid
p967
aVamp
p968
aVjegvoil
p969
aVdisappointed
p970
aVyou
p971
aVd
p972
aVsensational
p973
aVeconarchive
p974
aVcognitive
p975
aViphone7
p976
aVsignal
p977
aVcumblast
p978
aVn88zy
p979
aVloser
p980
aVexplique
p981
aVsab
p982
aVsissy
p983
aVeen
p984
aVnipple
p985
aVt
p986
aVlxnlaopdqv8
p987
aVflabbergasted
p988
aVpopular
p989
aVinvaluable
p990
aVrepressed
p991
aVnice
p992
aVsatyarthi
p993
aVadamlevine
p994
aVitalian
p995
aVnpussy
p996
aVserverless
p997
aVwww
p998
aVright
p999
aVold
p1000
aVflippa
p1001
aVvegan
p1002
aVnaam
p1003
aVtwitter
p1004
aVfake
p1005
aVback
p1006
aVdead
p1007
aVtempered
p1008
aVstrongest
p1009
aVeconomic
p1010
aVtrendy
p1011
aVcurious
p1012
aVsupportive
p1013
aVmat
p1014
aVick
p1015
aVviral
p1016
aVouts
p1017
aVvs
p1018
aVphonehttps
p1019
aVphenomenal
p1020
aVchutyo
p1021
aVteamlesbian
p1022
aVlegal
p1023
aV14th
p1024
aVd1ck
p1025
aVuma
p1026
aVanubhavsinha
p1027
aVepic
p1028
aVadorable
p1029
aVtemple
p1030
aVfreed
p1031
aVsacramental
p1032
aVbe
p1033
aVwelcome
p1034
aVscientific
p1035
aVbc
p1036
aVlose
p1037
aVbi
p1038
aVslut
p1039
aVbroken
p1040
aVachi
p1041
aVslowpic
p1042
aVworthy
p1043
aVkeeper
p1044
aVmemorable
p1045
aVpost
p1046
aVyearshttp
p1047
aVsuper
p1048
aVusat
p1049
aVauspicious
p1050
aVich
p1051
aVok
p1052
aVpositionpic
p1053
aVsoft
p1054
aVsachin
p1055
aVfavorite
p1056
aVo
p1057
aValgu
p1058
aVnajayaj
p1059
aVgenocide
p1060
aVow
p1061
aVthreesome
p1062
aVlasting
p1063
aVshiny
p1064
aVmast
p1065
aVchutiyo
p1066
aVown
p1067
aVusse
p1068
aVwit1
p1069
aVpyrocynical
p1070
aVmarxist
p1071
aVcivil
p1072
aVithttps
p1073
aVteambigblackdick
p1074
aVawaited
p1075
aVbadpic
p1076
aVthankful
p1077
aVappropriate
p1078
aVghar
p1079
aVtiny
p1080
aVliet
p1081
aVhotwife
p1082
aVraftaarmusic
p1083
aVvaluable
p1084
aVearly
p1085
aVpointless
p1086
aVyour
p1087
aVmental
p1088
aVhet
p1089
aVtropical
p1090
aVnoone
p1091
aVvan
p1092
aVcrowd
p1093
aVconfident
p1094
aVnodal
p1095
aVcostly
p1096
aVphool
p1097
aVaroundpic
p1098
aValleged
p1099
aVfast
p1100
aVnoticed
p1101
aVstamina
p1102
aVstrict
p1103
aVfought
p1104
aVplz
p1105
aVlow
p1106
aVbiggest
p1107
aVbored
p1108
aVhysterical
p1109
aVtherepic
p1110
aVhappy
p1111
aVlowest
p1112
aVuffff
p1113
aVhead
p1114
aVnorth
p1115
aVcomplete
p1116
aVabysmal
p1117
aVenough
p1118
aVjewish
p1119
aVgorgeous
p1120
aVuppar
p1121
aVassured
p1122
aVmanipulative
p1123
aVelderly
p1124
aVhighest
p1125
aVtrue
p1126
aVconclus
p1127
aVtumblr
p1128
aVbhoside
p1129
aVlargest
p1130
aValan19531953
p1131
aVwish
p1132
aVuth
p1133
aVofficial
p1134
aVfrustindian
p1135
aVur
p1136
aVlollypop
p1137
aVun
p1138
aVlgetni
p1139
aVuk
p1140
aVnslaver
p1141
aVfaggot
p1142
aVcinepop
p1143
aVaverage
p1144
aVmarnay
p1145
aVstoragemadeeasy
p1146
aVab
p1147
aVliberal
p1148
aVnationalist
p1149
aVpin
p1150
aVflat
p1151
aVsteady
p1152
aVuniversal
p1153
aVpic
p1154
aVal
p1155
aVdoesn
p1156
aVpersistent
p1157
aVproper
p1158
aVsingle
p1159
aVdiverse
p1160
aVau
p1161
aVgoodness
p1162
aVgirlfriend
p1163
aVjudgemental
p1164
aVannoying
p1165
aVonfs
p1166
aVtreg5252
p1167
aVcream
p1168
aVtedious
p1169
aVselfish
p1170
aVterriblytiny
p1171
aVlemon
p1172
aVlo
p1173
aVmollysissybimbo
p1174
aVincredible
p1175
aVna
p1176
aVnai
p1177
aVexcel
p1178
aVne
p1179
aVsurreal
p1180
aVother
p1181
aVes
p1182
aVsick
p1183
aVdigital
p1184
aVtest
p1185
aVunwilling
p1186
aVincredibly
p1187
aVnu
p1188
aVpaajipic
p1189
aVpoor
p1190
aVrt
p1191
aVharam
p1192
aVecon
p1193
aVepicfantasy
p1194
aVlene
p1195
aVseparate
p1196
aVfavourite
p1197
aVcuckold
p1198
aVfiasco
p1199
aVklar
p1200
aVupdate
p1201
aVfelm
p1202
aVimportant
p1203
aVa4
p1204
aVrural
p1205
aVbaddy
p1206
aVlauda
p1207
aVubi
p1208
aVbrittanylauda
p1209
aVnits
p1210
aVbilateral
p1211
aVummahh
p1212
aVswapan55
p1213
aVmymultifaceteddiary
p1214
aVdaily
p1215
aVrough
p1216
aVq5poumhxw
p1217
aVu
p1218
aVnarrative
p1219
aVdirectory
p1220
aVserious
p1221
aVzien
p1222
aVoral
p1223
aVthathttps
p1224
a.